target datalayout = "e-m:e-p270:32:32-p271:32:32-p272:64:64-i64:64-i128:128-f80:128-n8:16:32:64-S128"
target triple = "x86_64-unknown-linux-gnu"

%"struct.llvh::AlignedCharArray" = type { [8 x i8] }
%"class.llvh::SMLoc" = type { ptr }
%"class.llvh::SMRange" = type { %"class.llvh::SMLoc", %"class.llvh::SMLoc" }
%"class.hermes::parser::detail::JSParserImpl" = type { ptr, ptr, %"class.hermes::parser::JSLexer", ptr, i32, ptr, i32, i8, i8, i8, %"class.llvh::SmallVector.9", i32, i8, i8, ptr, ptr, ptr, ptr, ptr, ptr, ptr, ptr, ptr, ptr, ptr, ptr, ptr, ptr, ptr, ptr, ptr, ptr, ptr, ptr, ptr, ptr, ptr, ptr, ptr, ptr, ptr, ptr, ptr, ptr, ptr, ptr, ptr, ptr, ptr, ptr, ptr, ptr, ptr, ptr, ptr, ptr, ptr, ptr, ptr, ptr, ptr, ptr, ptr, ptr, ptr, ptr, ptr, ptr, ptr, ptr, ptr, ptr, ptr, ptr, ptr, ptr, ptr, ptr, ptr, ptr, ptr, ptr, ptr, ptr, ptr, [122 x ptr] }
%"class.hermes::parser::JSLexer" = type { ptr, ptr, i32, %"class.std::unique_ptr", ptr, ptr, i8, i8, i8, i8, [4 x i8], %"class.hermes::parser::Token", %"class.llvh::SMLoc", ptr, ptr, ptr, i8, %"class.llvh::SmallString", %"class.llvh::SmallString", [46 x ptr], %"class.std::vector", %"class.std::vector.4" }
%"class.std::unique_ptr" = type { %"struct.std::__uniq_ptr_data" }
%"struct.std::__uniq_ptr_data" = type { %"class.std::__uniq_ptr_impl" }
%"class.std::__uniq_ptr_impl" = type { %"class.std::tuple" }
%"class.std::tuple" = type { %"struct.std::_Tuple_impl" }
%"struct.std::_Tuple_impl" = type { %"struct.std::_Head_base.1" }
%"struct.std::_Head_base.1" = type { ptr }
%"class.hermes::parser::Token" = type <{ i32, [4 x i8], %"class.llvh::SMRange", double, ptr, ptr, ptr, ptr, i8, [7 x i8] }>
%"class.llvh::SmallString" = type { %"class.llvh::SmallVector" }
%"class.llvh::SmallVector" = type { %"class.llvh::SmallVectorImpl", %"struct.llvh::SmallVectorStorage" }
%"class.llvh::SmallVectorImpl" = type { %"class.llvh::SmallVectorTemplateBase" }
%"class.llvh::SmallVectorTemplateBase" = type { %"class.llvh::SmallVectorTemplateCommon" }
%"class.llvh::SmallVectorTemplateCommon" = type { %"class.llvh::SmallVectorBase" }
%"class.llvh::SmallVectorBase" = type { ptr, i32, i32 }
%"struct.llvh::SmallVectorStorage" = type { [256 x %"struct.llvh::AlignedCharArrayUnion.2"] }
%"struct.llvh::AlignedCharArrayUnion.2" = type { %"struct.llvh::AlignedCharArray.3" }
%"struct.llvh::AlignedCharArray.3" = type { [1 x i8] }
%"class.std::vector" = type { %"struct.std::_Vector_base" }
%"struct.std::_Vector_base" = type { %"struct.std::_Vector_base<hermes::parser::StoredComment, std::allocator<hermes::parser::StoredComment>>::_Vector_impl" }
%"struct.std::_Vector_base<hermes::parser::StoredComment, std::allocator<hermes::parser::StoredComment>>::_Vector_impl" = type { %"struct.std::_Vector_base<hermes::parser::StoredComment, std::allocator<hermes::parser::StoredComment>>::_Vector_impl_data" }
%"struct.std::_Vector_base<hermes::parser::StoredComment, std::allocator<hermes::parser::StoredComment>>::_Vector_impl_data" = type { ptr, ptr, ptr }
%"class.std::vector.4" = type { %"struct.std::_Vector_base.5" }
%"struct.std::_Vector_base.5" = type { %"struct.std::_Vector_base<hermes::parser::StoredToken, std::allocator<hermes::parser::StoredToken>>::_Vector_impl" }
%"struct.std::_Vector_base<hermes::parser::StoredToken, std::allocator<hermes::parser::StoredToken>>::_Vector_impl" = type { %"struct.std::_Vector_base<hermes::parser::StoredToken, std::allocator<hermes::parser::StoredToken>>::_Vector_impl_data" }
%"struct.std::_Vector_base<hermes::parser::StoredToken, std::allocator<hermes::parser::StoredToken>>::_Vector_impl_data" = type { ptr, ptr, ptr }
%"class.llvh::SmallVector.9" = type { %"class.llvh::SmallVectorImpl.10", %"struct.llvh::SmallVectorStorage.13" }
%"class.llvh::SmallVectorImpl.10" = type { %"class.llvh::SmallVectorTemplateBase.11" }
%"class.llvh::SmallVectorTemplateBase.11" = type { %"class.llvh::SmallVectorTemplateCommon.12" }
%"class.llvh::SmallVectorTemplateCommon.12" = type { %"class.llvh::SmallVectorBase" }
%"struct.llvh::SmallVectorStorage.13" = type { [1 x %"struct.llvh::AlignedCharArrayUnion.14"] }
%"struct.llvh::AlignedCharArrayUnion.14" = type { %"struct.llvh::AlignedCharArray" }
%"class.llvh::Optional.71" = type { %"struct.llvh::optional_detail::OptionalStorage.72" }
%"struct.llvh::optional_detail::OptionalStorage.72" = type { %"struct.llvh::AlignedCharArrayUnion.14", i8, [7 x i8] }

@.str.19 = private unnamed_addr constant [26 x i8] c"in render type annotation\00", align 1
@.str.20 = private unnamed_addr constant [21 x i8] c"start of render type\00", align 1

; Function Attrs: mustprogress nounwind uwtable
define linkonce_odr hidden void @_ZN4llvh15optional_detail15OptionalStorageIPN6hermes12UniqueStringELb1EEC2ERKS4_(ptr noundef nonnull align 8 dereferenceable(9) %this, ptr noundef nonnull align 8 dereferenceable(8) %y) unnamed_addr #0 comdat align 2 {
entry:
  %this.addr = alloca ptr, align 8
  %y.addr = alloca ptr, align 8
  store ptr %this, ptr %this.addr, align 8
  store ptr %y, ptr %y.addr, align 8
  %this1 = load ptr, ptr %this.addr, align 8
  %hasVal = getelementptr inbounds %"struct.llvh::optional_detail::OptionalStorage.72", ptr %this1, i32 0, i32 1
  store i8 1, ptr %hasVal, align 8
  %storage2 = getelementptr inbounds %"struct.llvh::optional_detail::OptionalStorage.72", ptr %this1, i32 0, i32 0
  %buffer = getelementptr inbounds %"struct.llvh::AlignedCharArray", ptr %storage2, i32 0, i32 0
  %arraydecay = getelementptr inbounds [8 x i8], ptr %buffer, i64 0, i64 0
  %0 = load ptr, ptr %y.addr, align 8
  %1 = load ptr, ptr %0, align 8
  store ptr %1, ptr %arraydecay, align 8
  ret void
}

; Function Attrs: mustprogress nounwind uwtable
define linkonce_odr hidden void @_ZN4llvh15optional_detail15OptionalStorageIPN6hermes12UniqueStringELb1EEC2Ev(ptr noundef nonnull align 8 dereferenceable(9) %this) unnamed_addr #0 comdat align 2 {
entry:
  %this.addr = alloca ptr, align 8
  store ptr %this, ptr %this.addr, align 8
  %this1 = load ptr, ptr %this.addr, align 8
  %hasVal = getelementptr inbounds %"struct.llvh::optional_detail::OptionalStorage.72", ptr %this1, i32 0, i32 1
  store i8 0, ptr %hasVal, align 8
  ret void
}

; Function Attrs: mustprogress nounwind uwtable
define linkonce_odr hidden { ptr, ptr } @_ZNK6hermes6parser5Token14getSourceRangeEv(ptr noundef nonnull align 8 dereferenceable(65) %this) #0 comdat align 2 {
entry:
  %retval = alloca %"class.llvh::SMRange", align 8
  %this.addr = alloca ptr, align 8
  store ptr %this, ptr %this.addr, align 8
  %this1 = load ptr, ptr %this.addr, align 8
  %range_ = getelementptr inbounds %"class.hermes::parser::Token", ptr %this1, i32 0, i32 2
  call void @llvm.memcpy.p0.p0.i64(ptr align 8 %retval, ptr align 8 %range_, i64 16, i1 false)
  %0 = load { ptr, ptr }, ptr %retval, align 8
  ret { ptr, ptr } %0
}

; Function Attrs: mustprogress nounwind uwtable
define linkonce_odr hidden noundef ptr @_ZNK4llvh5SMLoc10getPointerEv(ptr noundef nonnull align 8 dereferenceable(8) %this) #0 comdat align 2 {
entry:
  %this.addr = alloca ptr, align 8
  store ptr %this, ptr %this.addr, align 8
  %this1 = load ptr, ptr %this.addr, align 8
  %Ptr = getelementptr inbounds %"class.llvh::SMLoc", ptr %this1, i32 0, i32 0
  %0 = load ptr, ptr %Ptr, align 8
  ret ptr %0
}

; Function Attrs: mustprogress nounwind uwtable
define linkonce_odr hidden ptr @_ZNK6hermes6parser5Token9getEndLocEv(ptr noundef nonnull align 8 dereferenceable(65) %this) #0 comdat align 2 {
entry:
  %retval = alloca %"class.llvh::SMLoc", align 8
  %this.addr = alloca ptr, align 8
  store ptr %this, ptr %this.addr, align 8
  %this1 = load ptr, ptr %this.addr, align 8
  %range_ = getelementptr inbounds %"class.hermes::parser::Token", ptr %this1, i32 0, i32 2
  %End = getelementptr inbounds %"class.llvh::SMRange", ptr %range_, i32 0, i32 1
  call void @llvm.memcpy.p0.p0.i64(ptr align 8 %retval, ptr align 8 %End, i64 8, i1 false)
  %coerce.dive = getelementptr inbounds %"class.llvh::SMLoc", ptr %retval, i32 0, i32 0
  %0 = load ptr, ptr %coerce.dive, align 8
  ret ptr %0
}

; Function Attrs: mustprogress nounwind uwtable
define linkonce_odr hidden void @_ZN4llvh8OptionalIPN6hermes12UniqueStringEEC2EOS3_(ptr noundef nonnull align 8 dereferenceable(16) %this, ptr noundef nonnull align 8 dereferenceable(8) %y) unnamed_addr #0 comdat align 2 {
entry:
  %this.addr = alloca ptr, align 8
  %y.addr = alloca ptr, align 8
  store ptr %this, ptr %this.addr, align 8
  store ptr %y, ptr %y.addr, align 8
  %this1 = load ptr, ptr %this.addr, align 8
  %Storage = getelementptr inbounds %"class.llvh::Optional.71", ptr %this1, i32 0, i32 0
  %0 = load ptr, ptr %y.addr, align 8
  call void @_ZN4llvh15optional_detail15OptionalStorageIPN6hermes12UniqueStringELb1EEC2ERKS4_(ptr noundef nonnull align 8 dereferenceable(9) %Storage, ptr noundef nonnull align 8 dereferenceable(8) %0)
  ret void
}

; Function Attrs: mustprogress nounwind uwtable
define linkonce_odr hidden void @_ZN4llvh8OptionalIPN6hermes12UniqueStringEEC2ENS_8NoneTypeE(ptr noundef nonnull align 8 dereferenceable(16) %this, i32 noundef %0) unnamed_addr #0 comdat align 2 {
entry:
  %this.addr = alloca ptr, align 8
  %.addr = alloca i32, align 4
  store ptr %this, ptr %this.addr, align 8
  store i32 %0, ptr %.addr, align 4
  %this1 = load ptr, ptr %this.addr, align 8
  %Storage = getelementptr inbounds %"class.llvh::Optional.71", ptr %this1, i32 0, i32 0
  call void @_ZN4llvh15optional_detail15OptionalStorageIPN6hermes12UniqueStringELb1EEC2Ev(ptr noundef nonnull align 8 dereferenceable(9) %Storage) #9
  ret void
}

; Function Attrs: mustprogress nounwind uwtable
define linkonce_odr hidden { ptr, ptr } @_ZN6hermes6parser6detail12JSParserImpl7advanceENS0_7JSLexer14GrammarContextE(ptr noundef nonnull align 8 dereferenceable(2752) %this, i32 noundef %grammarContext) #0 comdat align 2 {
entry:
  %retval = alloca %"class.llvh::SMRange", align 8
  %this.addr = alloca ptr, align 8
  %grammarContext.addr = alloca i32, align 4
  store ptr %this, ptr %this.addr, align 8
  store i32 %grammarContext, ptr %grammarContext.addr, align 4
  %this1 = load ptr, ptr %this.addr, align 8
  %tok_ = getelementptr inbounds %"class.hermes::parser::detail::JSParserImpl", ptr %this1, i32 0, i32 3
  %0 = load ptr, ptr %tok_, align 8
  %call = call { ptr, ptr } @_ZNK6hermes6parser5Token14getSourceRangeEv(ptr noundef nonnull align 8 dereferenceable(65) %0)
  %1 = getelementptr inbounds { ptr, ptr }, ptr %retval, i32 0, i32 0
  %2 = extractvalue { ptr, ptr } %call, 0
  store ptr %2, ptr %1, align 8
  %3 = getelementptr inbounds { ptr, ptr }, ptr %retval, i32 0, i32 1
  %4 = extractvalue { ptr, ptr } %call, 1
  store ptr %4, ptr %3, align 8
  %lexer_ = getelementptr inbounds %"class.hermes::parser::detail::JSParserImpl", ptr %this1, i32 0, i32 2
  %5 = load i32, ptr %grammarContext.addr, align 4
  %call2 = call noundef ptr @_ZN6hermes6parser7JSLexer7advanceENS1_14GrammarContextE(ptr noundef nonnull align 8 dereferenceable(1128) %lexer_, i32 noundef %5)
  %tok_3 = getelementptr inbounds %"class.hermes::parser::detail::JSParserImpl", ptr %this1, i32 0, i32 3
  store ptr %call2, ptr %tok_3, align 8
  %6 = load { ptr, ptr }, ptr %retval, align 8
  ret { ptr, ptr } %6
}

; Function Attrs: mustprogress nounwind uwtable
define linkonce_odr hidden noundef zeroext i1 @_ZNK6hermes6parser5Token23checkFollowingCharacterEc(ptr noundef nonnull align 8 dereferenceable(65) %this, i8 noundef signext %c) #0 comdat align 2 {
entry:
  %this.addr = alloca ptr, align 8
  %c.addr = alloca i8, align 1
  %ref.tmp = alloca %"class.llvh::SMLoc", align 8
  store ptr %this, ptr %this.addr, align 8
  store i8 %c, ptr %c.addr, align 1
  %this1 = load ptr, ptr %this.addr, align 8
  %call = call ptr @_ZNK6hermes6parser5Token9getEndLocEv(ptr noundef nonnull align 8 dereferenceable(65) %this1)
  %coerce.dive = getelementptr inbounds %"class.llvh::SMLoc", ptr %ref.tmp, i32 0, i32 0
  store ptr %call, ptr %coerce.dive, align 8
  %call2 = call noundef ptr @_ZNK4llvh5SMLoc10getPointerEv(ptr noundef nonnull align 8 dereferenceable(8) %ref.tmp)
  %0 = load i8, ptr %call2, align 1
  %conv = sext i8 %0 to i32
  %1 = load i8, ptr %c.addr, align 1
  %conv3 = sext i8 %1 to i32
  %cmp = icmp eq i32 %conv, %conv3
  ret i1 %cmp
}

; Function Attrs: mustprogress nounwind uwtable
define hidden { i64, i8 } @_ZN6hermes6parser6detail12JSParserImpl23parseRenderTypeOperatorEv(ptr noundef nonnull align 8 dereferenceable(2752) %this) #0 align 2 {
entry:
  %retval = alloca %"class.llvh::Optional.71", align 8
  %this.addr = alloca ptr, align 8
  %typeOperator = alloca ptr, align 8
  %start = alloca %"class.llvh::SMLoc", align 8
  %ref.tmp = alloca %"class.llvh::SMRange", align 8
  %agg.tmp = alloca %"class.llvh::SMLoc", align 8
  %start8 = alloca %"class.llvh::SMLoc", align 8
  %ref.tmp9 = alloca %"class.llvh::SMRange", align 8
  %agg.tmp12 = alloca %"class.llvh::SMLoc", align 8
  %coerce = alloca %"class.llvh::SMRange", align 8
  store ptr %this, ptr %this.addr, align 8
  %this1 = load ptr, ptr %this.addr, align 8
  %rendersIdent_ = getelementptr inbounds %"class.hermes::parser::detail::JSParserImpl", ptr %this1, i32 0, i32 75
  %0 = load ptr, ptr %rendersIdent_, align 8
  store ptr %0, ptr %typeOperator, align 8
  %tok_ = getelementptr inbounds %"class.hermes::parser::detail::JSParserImpl", ptr %this1, i32 0, i32 3
  %1 = load ptr, ptr %tok_, align 8
  %call = call noundef zeroext i1 @_ZNK6hermes6parser5Token23checkFollowingCharacterEc(ptr noundef nonnull align 8 dereferenceable(65) %1, i8 noundef signext 63)
  br i1 %call, label %if.then, label %if.else

if.then:                                          ; preds = %entry
  %call2 = call { ptr, ptr } @_ZN6hermes6parser6detail12JSParserImpl7advanceENS0_7JSLexer14GrammarContextE(ptr noundef nonnull align 8 dereferenceable(2752) %this1, i32 noundef 3)
  %2 = getelementptr inbounds { ptr, ptr }, ptr %ref.tmp, i32 0, i32 0
  %3 = extractvalue { ptr, ptr } %call2, 0
  store ptr %3, ptr %2, align 8
  %4 = getelementptr inbounds { ptr, ptr }, ptr %ref.tmp, i32 0, i32 1
  %5 = extractvalue { ptr, ptr } %call2, 1
  store ptr %5, ptr %4, align 8
  %Start = getelementptr inbounds %"class.llvh::SMRange", ptr %ref.tmp, i32 0, i32 0
  call void @llvm.memcpy.p0.p0.i64(ptr align 8 %start, ptr align 8 %Start, i64 8, i1 false)
  call void @llvm.memcpy.p0.p0.i64(ptr align 8 %agg.tmp, ptr align 8 %start, i64 8, i1 false)
  %coerce.dive = getelementptr inbounds %"class.llvh::SMLoc", ptr %agg.tmp, i32 0, i32 0
  %6 = load ptr, ptr %coerce.dive, align 8
  %call3 = call noundef zeroext i1 @_ZN6hermes6parser6detail12JSParserImpl3eatENS0_9TokenKindENS0_7JSLexer14GrammarContextEPKcS7_N4llvh5SMLocE(ptr noundef nonnull align 8 dereferenceable(2752) %this1, i32 noundef 91, i32 noundef 3, ptr noundef @.str.19, ptr noundef @.str.20, ptr %6)
  br i1 %call3, label %if.end, label %if.then4

if.then4:                                         ; preds = %if.then
  call void @_ZN4llvh8OptionalIPN6hermes12UniqueStringEEC2ENS_8NoneTypeE(ptr noundef nonnull align 8 dereferenceable(16) %retval, i32 noundef 1)
  br label %return

if.end:                                           ; preds = %if.then
  %rendersMaybeOperator_ = getelementptr inbounds %"class.hermes::parser::detail::JSParserImpl", ptr %this1, i32 0, i32 76
  %7 = load ptr, ptr %rendersMaybeOperator_, align 8
  store ptr %7, ptr %typeOperator, align 8
  br label %if.end20

if.else:                                          ; preds = %entry
  %tok_5 = getelementptr inbounds %"class.hermes::parser::detail::JSParserImpl", ptr %this1, i32 0, i32 3
  %8 = load ptr, ptr %tok_5, align 8
  %call6 = call noundef zeroext i1 @_ZNK6hermes6parser5Token23checkFollowingCharacterEc(ptr noundef nonnull align 8 dereferenceable(65) %8, i8 noundef signext 42)
  br i1 %call6, label %if.then7, label %if.else17

if.then7:                                         ; preds = %if.else
  %call10 = call { ptr, ptr } @_ZN6hermes6parser6detail12JSParserImpl7advanceENS0_7JSLexer14GrammarContextE(ptr noundef nonnull align 8 dereferenceable(2752) %this1, i32 noundef 3)
  %9 = getelementptr inbounds { ptr, ptr }, ptr %ref.tmp9, i32 0, i32 0
  %10 = extractvalue { ptr, ptr } %call10, 0
  store ptr %10, ptr %9, align 8
  %11 = getelementptr inbounds { ptr, ptr }, ptr %ref.tmp9, i32 0, i32 1
  %12 = extractvalue { ptr, ptr } %call10, 1
  store ptr %12, ptr %11, align 8
  %Start11 = getelementptr inbounds %"class.llvh::SMRange", ptr %ref.tmp9, i32 0, i32 0
  call void @llvm.memcpy.p0.p0.i64(ptr align 8 %start8, ptr align 8 %Start11, i64 8, i1 false)
  call void @llvm.memcpy.p0.p0.i64(ptr align 8 %agg.tmp12, ptr align 8 %start8, i64 8, i1 false)
  %coerce.dive13 = getelementptr inbounds %"class.llvh::SMLoc", ptr %agg.tmp12, i32 0, i32 0
  %13 = load ptr, ptr %coerce.dive13, align 8
  %call14 = call noundef zeroext i1 @_ZN6hermes6parser6detail12JSParserImpl3eatENS0_9TokenKindENS0_7JSLexer14GrammarContextEPKcS7_N4llvh5SMLocE(ptr noundef nonnull align 8 dereferenceable(2752) %this1, i32 noundef 66, i32 noundef 3, ptr noundef @.str.19, ptr noundef @.str.20, ptr %13)
  br i1 %call14, label %if.end16, label %if.then15

if.then15:                                        ; preds = %if.then7
  call void @_ZN4llvh8OptionalIPN6hermes12UniqueStringEEC2ENS_8NoneTypeE(ptr noundef nonnull align 8 dereferenceable(16) %retval, i32 noundef 1)
  br label %return

if.end16:                                         ; preds = %if.then7
  %rendersStarOperator_ = getelementptr inbounds %"class.hermes::parser::detail::JSParserImpl", ptr %this1, i32 0, i32 77
  %14 = load ptr, ptr %rendersStarOperator_, align 8
  store ptr %14, ptr %typeOperator, align 8
  br label %if.end19

if.else17:                                        ; preds = %if.else
  %call18 = call { ptr, ptr } @_ZN6hermes6parser6detail12JSParserImpl7advanceENS0_7JSLexer14GrammarContextE(ptr noundef nonnull align 8 dereferenceable(2752) %this1, i32 noundef 3)
  %15 = getelementptr inbounds { ptr, ptr }, ptr %coerce, i32 0, i32 0
  %16 = extractvalue { ptr, ptr } %call18, 0
  store ptr %16, ptr %15, align 8
  %17 = getelementptr inbounds { ptr, ptr }, ptr %coerce, i32 0, i32 1
  %18 = extractvalue { ptr, ptr } %call18, 1
  store ptr %18, ptr %17, align 8
  br label %if.end19

if.end19:                                         ; preds = %if.else17, %if.end16
  br label %if.end20

if.end20:                                         ; preds = %if.end19, %if.end
  call void @_ZN4llvh8OptionalIPN6hermes12UniqueStringEEC2EOS3_(ptr noundef nonnull align 8 dereferenceable(16) %retval, ptr noundef nonnull align 8 dereferenceable(8) %typeOperator)
  br label %return

return:                                           ; preds = %if.end20, %if.then15, %if.then4
  %coerce.dive21 = getelementptr inbounds %"class.llvh::Optional.71", ptr %retval, i32 0, i32 0
  %19 = load { i64, i8 }, ptr %coerce.dive21, align 8
  ret { i64, i8 } %19
}