; Function Attrs: mustprogress nounwind uwtable
define hidden { i64, i8 } @_ZN6hermes6parser6detail12JSParserImpl23parseRenderTypeOperatorEv(ptr noundef nonnull align 8 dereferenceable(2752) %this) local_unnamed_addr #0 align 2 {
entry:
  %tok_ = getelementptr inbounds nuw i8, ptr %this, i64 1144
  %0 = load ptr, ptr %tok_, align 8
  %End.i.i = getelementptr inbounds nuw i8, ptr %0, i64 16
  %retval.sroa.0.0.copyload.i.i = load ptr, ptr %End.i.i, align 8
  %1 = load i8, ptr %retval.sroa.0.0.copyload.i.i, align 1
  %lexer_.i22 = getelementptr inbounds nuw i8, ptr %this, i64 16
  switch i8 %1, label %if.else17 [
    i8 63, label %if.then
    i8 42, label %if.then7
  ]

if.then:                                          ; preds = %entry
  %range_.i.i = getelementptr inbounds nuw i8, ptr %0, i64 8
  %retval.sroa.0.0.copyload.i.i1 = load ptr, ptr %range_.i.i, align 8
  %call2.i = tail call noundef ptr @_ZN6hermes6parser7JSLexer7advanceENS1_14GrammarContextE(ptr noundef nonnull align 8 dereferenceable(1128) %lexer_.i22, i32 noundef 3) #10
  store ptr %call2.i, ptr %tok_, align 8
  %call3 = tail call noundef zeroext i1 @_ZN6hermes6parser6detail12JSParserImpl3eatENS0_9TokenKindENS0_7JSLexer14GrammarContextEPKcS7_N4llvh5SMLocE(ptr noundef nonnull align 8 dereferenceable(2752) %this, i32 noundef 91, i32 noundef 3, ptr noundef nonnull @.str.19, ptr noundef nonnull @.str.20, ptr %retval.sroa.0.0.copyload.i.i1) #10
  br i1 %call3, label %if.end, label %return

if.end:                                           ; preds = %if.then
  %rendersMaybeOperator_ = getelementptr inbounds nuw i8, ptr %this, i64 1704
  %2 = load ptr, ptr %rendersMaybeOperator_, align 8
  br label %if.end20

if.then7:                                         ; preds = %entry
  %range_.i.i6 = getelementptr inbounds nuw i8, ptr %0, i64 8
  %retval.sroa.0.0.copyload.i.i7 = load ptr, ptr %range_.i.i6, align 8
  %call2.i13 = tail call noundef ptr @_ZN6hermes6parser7JSLexer7advanceENS1_14GrammarContextE(ptr noundef nonnull align 8 dereferenceable(1128) %lexer_.i22, i32 noundef 3) #10
  store ptr %call2.i13, ptr %tok_, align 8
  %call14 = tail call noundef zeroext i1 @_ZN6hermes6parser6detail12JSParserImpl3eatENS0_9TokenKindENS0_7JSLexer14GrammarContextEPKcS7_N4llvh5SMLocE(ptr noundef nonnull align 8 dereferenceable(2752) %this, i32 noundef 66, i32 noundef 3, ptr noundef nonnull @.str.19, ptr noundef nonnull @.str.20, ptr %retval.sroa.0.0.copyload.i.i7) #10
  br i1 %call14, label %if.end16, label %return

if.end16:                                         ; preds = %if.then7
  %rendersStarOperator_ = getelementptr inbounds nuw i8, ptr %this, i64 1712
  %3 = load ptr, ptr %rendersStarOperator_, align 8
  br label %if.end20

if.else17:                                        ; preds = %entry
  %rendersIdent_ = getelementptr inbounds nuw i8, ptr %this, i64 1696
  %4 = load ptr, ptr %rendersIdent_, align 8
  %call2.i23 = tail call noundef ptr @_ZN6hermes6parser7JSLexer7advanceENS1_14GrammarContextE(ptr noundef nonnull align 8 dereferenceable(1128) %lexer_.i22, i32 noundef 3) #10
  store ptr %call2.i23, ptr %tok_, align 8
  br label %if.end20

if.end20:                                         ; preds = %if.end16, %if.else17, %if.end
  %typeOperator.0 = phi ptr [ %2, %if.end ], [ %3, %if.end16 ], [ %4, %if.else17 ]
  %5 = ptrtoint ptr %typeOperator.0 to i64
  br label %return

return:                                           ; preds = %if.then7, %if.then, %if.end20
  %retval.sroa.2.0 = phi i8 [ 1, %if.end20 ], [ 0, %if.then ], [ 0, %if.then7 ]
  %retval.sroa.0.0 = phi i64 [ %5, %if.end20 ], [ undef, %if.then ], [ undef, %if.then7 ]
  %.fca.0.insert = insertvalue { i64, i8 } poison, i64 %retval.sroa.0.0, 0
  %.fca.1.insert = insertvalue { i64, i8 } %.fca.0.insert, i8 %retval.sroa.2.0, 1
  ret { i64, i8 } %.fca.1.insert
}